target datalayout = "e-m:e-p270:32:32-p271:32:32-p272:64:64-i64:64-i128:128-f80:128-n8:16:32:64-S128"
target triple = "x86_64-pc-linux-gnu"

%struct.OSQPWorkspace_ = type { ptr, ptr, ptr, ptr, ptr, ptr, ptr, ptr, ptr, ptr, ptr, ptr, ptr, ptr, ptr, ptr, ptr, double, double, double, double, ptr, ptr, ptr, ptr, ptr, ptr, ptr, ptr, ptr, double, double, double, ptr, i64, i64, i64, i64, ptr, i64, double }
%struct.OSQPPolish = type { ptr, i64, ptr, ptr, ptr, ptr, double, double, double, double, double }
%struct.OSQPData = type { i64, i64, ptr, ptr, ptr, ptr, ptr }

@__func__.get_ypol_from_yred = private unnamed_addr constant [19 x i8] c"get_ypol_from_yred\00", align 1

; Function Attrs: nounwind uwtable
define internal i64 @get_ypol_from_yred(ptr noundef %0, ptr noundef %1) #0 {
  %3 = alloca i64, align 8
  %4 = alloca ptr, align 8
  %5 = alloca ptr, align 8
  %6 = alloca i64, align 8
  %7 = alloca i64, align 8
  %8 = alloca i64, align 8
  %9 = alloca i64, align 8
  %10 = alloca ptr, align 8
  %11 = alloca ptr, align 8
  %12 = alloca ptr, align 8
  %13 = alloca i32, align 4
  store ptr %0, ptr %4, align 8, !tbaa !18
  store ptr %1, ptr %5, align 8, !tbaa !11
  call void @llvm.lifetime.start.p0(i64 8, ptr %6) #5
  call void @llvm.lifetime.start.p0(i64 8, ptr %7) #5
  call void @llvm.lifetime.start.p0(i64 8, ptr %8) #5
  %14 = load ptr, ptr %4, align 8, !tbaa !18
  %15 = getelementptr inbounds nuw %struct.OSQPWorkspace_, ptr %14, i32 0, i32 0
  %16 = load ptr, ptr %15, align 8, !tbaa !31
  %17 = getelementptr inbounds nuw %struct.OSQPData, ptr %16, i32 0, i32 1
  %18 = load i64, ptr %17, align 8, !tbaa !61
  store i64 %18, ptr %8, align 8, !tbaa !7
  call void @llvm.lifetime.start.p0(i64 8, ptr %9) #5
  %19 = load ptr, ptr %5, align 8, !tbaa !11
  %20 = call i64 @OSQPVectorf_length(ptr noundef %19)
  store i64 %20, ptr %9, align 8, !tbaa !7
  call void @llvm.lifetime.start.p0(i64 8, ptr %10) #5
  store ptr null, ptr %10, align 8, !tbaa !62
  call void @llvm.lifetime.start.p0(i64 8, ptr %11) #5
  store ptr null, ptr %11, align 8, !tbaa !64
  call void @llvm.lifetime.start.p0(i64 8, ptr %12) #5
  store ptr null, ptr %12, align 8, !tbaa !64
  %21 = load i64, ptr %8, align 8, !tbaa !7
  %22 = mul i64 %21, 8
  %23 = call noalias ptr @malloc(i64 noundef %22) #6
  store ptr %23, ptr %10, align 8, !tbaa !62
  %24 = load i64, ptr %8, align 8, !tbaa !7
  %25 = mul i64 %24, 8
  %26 = call noalias ptr @malloc(i64 noundef %25) #6
  store ptr %26, ptr %11, align 8, !tbaa !64
  %27 = load i64, ptr %9, align 8, !tbaa !7
  %28 = mul i64 %27, 8
  %29 = call noalias ptr @malloc(i64 noundef %28) #6
  store ptr %29, ptr %12, align 8, !tbaa !64
  %30 = load ptr, ptr %10, align 8, !tbaa !62
  %31 = icmp ne ptr %30, null
  br i1 %31, label %32, label %38

32:                                               ; preds = %2
  %33 = load ptr, ptr %11, align 8, !tbaa !64
  %34 = icmp ne ptr %33, null
  br i1 %34, label %35, label %38

35:                                               ; preds = %32
  %36 = load ptr, ptr %12, align 8, !tbaa !64
  %37 = icmp ne ptr %36, null
  br i1 %37, label %43, label %38

38:                                               ; preds = %35, %32, %2
  %39 = load ptr, ptr %10, align 8, !tbaa !62
  call void @free(ptr noundef %39) #5
  %40 = load ptr, ptr %11, align 8, !tbaa !64
  call void @free(ptr noundef %40) #5
  %41 = load ptr, ptr %12, align 8, !tbaa !64
  call void @free(ptr noundef %41) #5
  %42 = call i64 @_osqp_error(i32 noundef 5, ptr noundef @__func__.get_ypol_from_yred)
  store i64 %42, ptr %3, align 8
  store i32 1, ptr %13, align 4
  br label %114

43:                                               ; preds = %35
  %44 = load ptr, ptr %10, align 8, !tbaa !62
  %45 = load ptr, ptr %4, align 8, !tbaa !18
  %46 = getelementptr inbounds nuw %struct.OSQPWorkspace_, ptr %45, i32 0, i32 2
  %47 = load ptr, ptr %46, align 8, !tbaa !26
  %48 = getelementptr inbounds nuw %struct.OSQPPolish, ptr %47, i32 0, i32 2
  %49 = load ptr, ptr %48, align 8, !tbaa !66
  call void @OSQPVectori_to_raw(ptr noundef %44, ptr noundef %49)
  %50 = load ptr, ptr %11, align 8, !tbaa !64
  %51 = load ptr, ptr %4, align 8, !tbaa !18
  %52 = getelementptr inbounds nuw %struct.OSQPWorkspace_, ptr %51, i32 0, i32 7
  %53 = load ptr, ptr %52, align 8, !tbaa !57
  call void @OSQPVectorf_to_raw(ptr noundef %50, ptr noundef %53)
  %54 = load ptr, ptr %12, align 8, !tbaa !64
  %55 = load ptr, ptr %5, align 8, !tbaa !11
  call void @OSQPVectorf_to_raw(ptr noundef %54, ptr noundef %55)
  %56 = load ptr, ptr %4, align 8, !tbaa !18
  %57 = getelementptr inbounds nuw %struct.OSQPWorkspace_, ptr %56, i32 0, i32 2
  %58 = load ptr, ptr %57, align 8, !tbaa !26
  %59 = getelementptr inbounds nuw %struct.OSQPPolish, ptr %58, i32 0, i32 1
  %60 = load i64, ptr %59, align 8, !tbaa !27
  %61 = icmp eq i64 %60, 0
  br i1 %61, label %62, label %71

62:                                               ; preds = %43
  %63 = load ptr, ptr %4, align 8, !tbaa !18
  %64 = getelementptr inbounds nuw %struct.OSQPWorkspace_, ptr %63, i32 0, i32 2
  %65 = load ptr, ptr %64, align 8, !tbaa !26
  %66 = getelementptr inbounds nuw %struct.OSQPPolish, ptr %65, i32 0, i32 5
  %67 = load ptr, ptr %66, align 8, !tbaa !43
  call void @OSQPVectorf_set_scalar(ptr noundef %67, double noundef 0.000000e+00)
  %68 = load ptr, ptr %10, align 8, !tbaa !62
  call void @free(ptr noundef %68) #5
  %69 = load ptr, ptr %11, align 8, !tbaa !64
  call void @free(ptr noundef %69) #5
  %70 = load ptr, ptr %12, align 8, !tbaa !64
  call void @free(ptr noundef %70) #5
  store i64 0, ptr %3, align 8
  store i32 1, ptr %13, align 4
  br label %114

71:                                               ; preds = %43
  store i64 0, ptr %7, align 8, !tbaa !7
  store i64 0, ptr %6, align 8, !tbaa !7
  br label %72

72:                                               ; preds = %101, %71
  %73 = load i64, ptr %6, align 8, !tbaa !7
  %74 = load ptr, ptr %4, align 8, !tbaa !18
  %75 = getelementptr inbounds nuw %struct.OSQPWorkspace_, ptr %74, i32 0, i32 0
  %76 = load ptr, ptr %75, align 8, !tbaa !31
  %77 = getelementptr inbounds nuw %struct.OSQPData, ptr %76, i32 0, i32 1
  %78 = load i64, ptr %77, align 8, !tbaa !61
  %79 = icmp slt i64 %73, %78
  br i1 %79, label %80, label %104

80:                                               ; preds = %72
  %81 = load ptr, ptr %10, align 8, !tbaa !62
  %82 = load i64, ptr %6, align 8, !tbaa !7
  %83 = getelementptr inbounds i64, ptr %81, i64 %82
  %84 = load i64, ptr %83, align 8, !tbaa !7
  %85 = icmp eq i64 %84, 0
  br i1 %85, label %86, label %90

86:                                               ; preds = %80
  %87 = load ptr, ptr %11, align 8, !tbaa !64
  %88 = load i64, ptr %6, align 8, !tbaa !7
  %89 = getelementptr inbounds double, ptr %87, i64 %88
  store double 0.000000e+00, ptr %89, align 8, !tbaa !67
  br label %100

90:                                               ; preds = %80
  %91 = load ptr, ptr %12, align 8, !tbaa !64
  %92 = load i64, ptr %7, align 8, !tbaa !7
  %93 = getelementptr inbounds double, ptr %91, i64 %92
  %94 = load double, ptr %93, align 8, !tbaa !67
  %95 = load ptr, ptr %11, align 8, !tbaa !64
  %96 = load i64, ptr %6, align 8, !tbaa !7
  %97 = getelementptr inbounds double, ptr %95, i64 %96
  store double %94, ptr %97, align 8, !tbaa !67
  %98 = load i64, ptr %7, align 8, !tbaa !7
  %99 = add nsw i64 %98, 1
  store i64 %99, ptr %7, align 8, !tbaa !7
  br label %100

100:                                              ; preds = %90, %86
  br label %101

101:                                              ; preds = %100
  %102 = load i64, ptr %6, align 8, !tbaa !7
  %103 = add nsw i64 %102, 1
  store i64 %103, ptr %6, align 8, !tbaa !7
  br label %72, !llvm.loop !75

104:                                              ; preds = %72
  %105 = load ptr, ptr %4, align 8, !tbaa !18
  %106 = getelementptr inbounds nuw %struct.OSQPWorkspace_, ptr %105, i32 0, i32 2
  %107 = load ptr, ptr %106, align 8, !tbaa !26
  %108 = getelementptr inbounds nuw %struct.OSQPPolish, ptr %107, i32 0, i32 5
  %109 = load ptr, ptr %108, align 8, !tbaa !43
  %110 = load ptr, ptr %11, align 8, !tbaa !64
  call void @OSQPVectorf_from_raw(ptr noundef %109, ptr noundef %110)
  %111 = load ptr, ptr %10, align 8, !tbaa !62
  call void @free(ptr noundef %111) #5
  %112 = load ptr, ptr %11, align 8, !tbaa !64
  call void @free(ptr noundef %112) #5
  %113 = load ptr, ptr %12, align 8, !tbaa !64
  call void @free(ptr noundef %113) #5
  store i64 0, ptr %3, align 8
  store i32 1, ptr %13, align 4
  br label %114

114:                                              ; preds = %104, %62, %38
  call void @llvm.lifetime.end.p0(i64 8, ptr %12) #5
  call void @llvm.lifetime.end.p0(i64 8, ptr %11) #5
  call void @llvm.lifetime.end.p0(i64 8, ptr %10) #5
  call void @llvm.lifetime.end.p0(i64 8, ptr %9) #5
  call void @llvm.lifetime.end.p0(i64 8, ptr %8) #5
  call void @llvm.lifetime.end.p0(i64 8, ptr %7) #5
  call void @llvm.lifetime.end.p0(i64 8, ptr %6) #5
  %115 = load i64, ptr %3, align 8
  ret i64 %115
}