; Function Attrs: nounwind uwtable
define internal fastcc void @get_ypol_from_yred(ptr noundef readonly captures(none) %0, ptr noundef nonnull %1) unnamed_addr #0 {
  %3 = load ptr, ptr %0, align 8, !tbaa !20
  %4 = getelementptr inbounds nuw i8, ptr %3, i64 8
  %5 = load i64, ptr %4, align 8, !tbaa !21
  %6 = tail call i64 @OSQPVectorf_length(ptr noundef nonnull %1) #6
  %7 = shl i64 %5, 3
  %8 = tail call noalias ptr @malloc(i64 noundef %7) #7
  %9 = tail call noalias ptr @malloc(i64 noundef %7) #7
  %10 = shl i64 %6, 3
  %11 = tail call noalias ptr @malloc(i64 noundef %10) #7
  %12 = icmp ne ptr %8, null
  %13 = icmp ne ptr %9, null
  %or.cond = and i1 %12, %13
  %14 = icmp ne ptr %11, null
  %or.cond3 = and i1 %or.cond, %14
  br i1 %or.cond3, label %17, label %15

15:                                               ; preds = %2
  tail call void @free(ptr noundef %8) #6
  tail call void @free(ptr noundef %9) #6
  tail call void @free(ptr noundef %11) #6
  %16 = tail call i64 @_osqp_error(i32 noundef 5, ptr noundef nonnull @__func__.get_ypol_from_yred) #6
  br label %47

17:                                               ; preds = %2
  %18 = getelementptr inbounds nuw i8, ptr %0, i64 16
  %19 = load ptr, ptr %18, align 8, !tbaa !24
  %20 = getelementptr inbounds nuw i8, ptr %19, i64 16
  %21 = load ptr, ptr %20, align 8, !tbaa !25
  tail call void @OSQPVectori_to_raw(ptr noundef nonnull %8, ptr noundef %21) #6
  %22 = getelementptr inbounds nuw i8, ptr %0, i64 56
  %23 = load ptr, ptr %22, align 8, !tbaa !28
  tail call void @OSQPVectorf_to_raw(ptr noundef nonnull %9, ptr noundef %23) #6
  tail call void @OSQPVectorf_to_raw(ptr noundef nonnull %11, ptr noundef nonnull %1) #6
  %24 = load ptr, ptr %18, align 8, !tbaa !24
  %25 = getelementptr inbounds nuw i8, ptr %24, i64 8
  %26 = load i64, ptr %25, align 8, !tbaa !35
  %27 = icmp eq i64 %26, 0
  br i1 %27, label %32, label %.preheader

.preheader:                                       ; preds = %17
  %28 = load ptr, ptr %0, align 8, !tbaa !20
  %29 = getelementptr inbounds nuw i8, ptr %28, i64 8
  %30 = load i64, ptr %29, align 8, !tbaa !21
  %31 = icmp sgt i64 %30, 0
  br i1 %31, label %.lr.ph, label %._crit_edge

32:                                               ; preds = %17
  %33 = getelementptr inbounds nuw i8, ptr %24, i64 40
  %34 = load ptr, ptr %33, align 8, !tbaa !52
  tail call void @OSQPVectorf_set_scalar(ptr noundef %34, double noundef 0.000000e+00) #6
  tail call void @free(ptr noundef nonnull %8) #6
  tail call void @free(ptr noundef nonnull %9) #6
  tail call void @free(ptr noundef nonnull %11) #6
  br label %47

.lr.ph:                                           ; preds = %.preheader, %42
  %.04248 = phi i64 [ %44, %42 ], [ 0, %.preheader ]
  %.04347 = phi i64 [ %.1, %42 ], [ 0, %.preheader ]
  %35 = getelementptr inbounds nuw i64, ptr %8, i64 %.04248
  %36 = load i64, ptr %35, align 8, !tbaa !32
  %37 = icmp eq i64 %36, 0
  br i1 %37, label %42, label %38

38:                                               ; preds = %.lr.ph
  %39 = getelementptr inbounds double, ptr %11, i64 %.04347
  %40 = load double, ptr %39, align 8, !tbaa !31
  %41 = add nsw i64 %.04347, 1
  br label %42

42:                                               ; preds = %.lr.ph, %38
  %.sink = phi double [ %40, %38 ], [ 0.000000e+00, %.lr.ph ]
  %.1 = phi i64 [ %41, %38 ], [ %.04347, %.lr.ph ]
  %43 = getelementptr inbounds nuw double, ptr %9, i64 %.04248
  store double %.sink, ptr %43, align 8, !tbaa !31
  %44 = add nuw nsw i64 %.04248, 1
  %exitcond.not = icmp eq i64 %44, %30
  br i1 %exitcond.not, label %._crit_edge, label %.lr.ph, !llvm.loop !68

._crit_edge:                                      ; preds = %42, %.preheader
  %45 = getelementptr inbounds nuw i8, ptr %24, i64 40
  %46 = load ptr, ptr %45, align 8, !tbaa !52
  tail call void @OSQPVectorf_from_raw(ptr noundef %46, ptr noundef nonnull %9) #6
  tail call void @free(ptr noundef nonnull %8) #6
  tail call void @free(ptr noundef nonnull %9) #6
  tail call void @free(ptr noundef %11) #6
  br label %47

47:                                               ; preds = %._crit_edge, %32, %15
  ret void
}